target datalayout = "e-m:e-p270:32:32-p271:32:32-p272:64:64-i64:64-i128:128-f80:128-n8:16:32:64-S128"
target triple = "x86_64-unknown-linux-gnu"

%struct.iovec = type { ptr, i64 }
%struct.QEMUIOVector = type { ptr, i32, %union.anon }
%union.anon = type { %struct.anon }
%struct.anon = type { i32, %struct.iovec }
%struct.anon.0 = type { [12 x i8], i64 }

@.str.1 = private unnamed_addr constant [19 x i8] c"../qemu/util/iov.c\00", align 1
@.str.8 = private unnamed_addr constant [27 x i8] c"offset + len <= qiov->size\00", align 1
@__PRETTY_FUNCTION__.qemu_iovec_slice = private unnamed_addr constant [90 x i8] c"struct iovec *qemu_iovec_slice(QEMUIOVector *, size_t, size_t, size_t *, size_t *, int *)\00", align 1
@.str.9 = private unnamed_addr constant [25 x i8] c"*tail < end_iov->iov_len\00", align 1

; Function Attrs: nounwind sspstrong uwtable
define internal ptr @iov_skip_offset(ptr noundef %iov, i64 noundef %offset, ptr noundef %remaining_offset) #0 {
entry:
  %iov.addr = alloca ptr, align 8
  %offset.addr = alloca i64, align 8
  %remaining_offset.addr = alloca ptr, align 8
  store ptr %iov, ptr %iov.addr, align 8
  store i64 %offset, ptr %offset.addr, align 8
  store ptr %remaining_offset, ptr %remaining_offset.addr, align 8
  br label %while.cond

while.cond:                                       ; preds = %while.body, %entry
  %0 = load i64, ptr %offset.addr, align 8
  %cmp = icmp ugt i64 %0, 0
  br i1 %cmp, label %land.rhs, label %land.end

land.rhs:                                         ; preds = %while.cond
  %1 = load i64, ptr %offset.addr, align 8
  %2 = load ptr, ptr %iov.addr, align 8
  %iov_len = getelementptr inbounds %struct.iovec, ptr %2, i32 0, i32 1
  %3 = load i64, ptr %iov_len, align 8
  %cmp1 = icmp uge i64 %1, %3
  br label %land.end

land.end:                                         ; preds = %land.rhs, %while.cond
  %4 = phi i1 [ false, %while.cond ], [ %cmp1, %land.rhs ]
  br i1 %4, label %while.body, label %while.end

while.body:                                       ; preds = %land.end
  %5 = load ptr, ptr %iov.addr, align 8
  %iov_len2 = getelementptr inbounds %struct.iovec, ptr %5, i32 0, i32 1
  %6 = load i64, ptr %iov_len2, align 8
  %7 = load i64, ptr %offset.addr, align 8
  %sub = sub i64 %7, %6
  store i64 %sub, ptr %offset.addr, align 8
  %8 = load ptr, ptr %iov.addr, align 8
  %incdec.ptr = getelementptr %struct.iovec, ptr %8, i32 1
  store ptr %incdec.ptr, ptr %iov.addr, align 8
  br label %while.cond, !llvm.loop !18

while.end:                                        ; preds = %land.end
  %9 = load i64, ptr %offset.addr, align 8
  %10 = load ptr, ptr %remaining_offset.addr, align 8
  store i64 %9, ptr %10, align 8
  %11 = load ptr, ptr %iov.addr, align 8
  ret ptr %11
}

; Function Attrs: nounwind sspstrong uwtable
define dso_local ptr @qemu_iovec_slice(ptr noundef %qiov, i64 noundef %offset, i64 noundef %len, ptr noundef %head, ptr noundef %tail, ptr noundef %niov) #0 {
entry:
  %qiov.addr = alloca ptr, align 8
  %offset.addr = alloca i64, align 8
  %len.addr = alloca i64, align 8
  %head.addr = alloca ptr, align 8
  %tail.addr = alloca ptr, align 8
  %niov.addr = alloca ptr, align 8
  %iov = alloca ptr, align 8
  %end_iov = alloca ptr, align 8
  store ptr %qiov, ptr %qiov.addr, align 8
  store i64 %offset, ptr %offset.addr, align 8
  store i64 %len, ptr %len.addr, align 8
  store ptr %head, ptr %head.addr, align 8
  store ptr %tail, ptr %tail.addr, align 8
  store ptr %niov, ptr %niov.addr, align 8
  %0 = load i64, ptr %offset.addr, align 8
  %1 = load i64, ptr %len.addr, align 8
  %add = add i64 %0, %1
  %2 = load ptr, ptr %qiov.addr, align 8
  %3 = getelementptr inbounds %struct.QEMUIOVector, ptr %2, i32 0, i32 2
  %size = getelementptr inbounds %struct.anon.0, ptr %3, i32 0, i32 1
  %4 = load i64, ptr %size, align 8
  %cmp = icmp ule i64 %add, %4
  br i1 %cmp, label %if.then, label %if.else

if.then:                                          ; preds = %entry
  br label %if.end

if.else:                                          ; preds = %entry
  call void @__assert_fail(ptr noundef @.str.8, ptr noundef @.str.1, i32 noundef 393, ptr noundef @__PRETTY_FUNCTION__.qemu_iovec_slice) #9
  unreachable

if.end:                                           ; preds = %if.then
  %5 = load ptr, ptr %qiov.addr, align 8
  %iov1 = getelementptr inbounds %struct.QEMUIOVector, ptr %5, i32 0, i32 0
  %6 = load ptr, ptr %iov1, align 8
  %7 = load i64, ptr %offset.addr, align 8
  %8 = load ptr, ptr %head.addr, align 8
  %call = call ptr @iov_skip_offset(ptr noundef %6, i64 noundef %7, ptr noundef %8)
  store ptr %call, ptr %iov, align 8
  %9 = load ptr, ptr %iov, align 8
  %10 = load ptr, ptr %head.addr, align 8
  %11 = load i64, ptr %10, align 8
  %12 = load i64, ptr %len.addr, align 8
  %add2 = add i64 %11, %12
  %13 = load ptr, ptr %tail.addr, align 8
  %call3 = call ptr @iov_skip_offset(ptr noundef %9, i64 noundef %add2, ptr noundef %13)
  store ptr %call3, ptr %end_iov, align 8
  %14 = load ptr, ptr %tail.addr, align 8
  %15 = load i64, ptr %14, align 8
  %cmp4 = icmp ugt i64 %15, 0
  br i1 %cmp4, label %if.then5, label %if.end11

if.then5:                                         ; preds = %if.end
  %16 = load ptr, ptr %tail.addr, align 8
  %17 = load i64, ptr %16, align 8
  %18 = load ptr, ptr %end_iov, align 8
  %iov_len = getelementptr inbounds %struct.iovec, ptr %18, i32 0, i32 1
  %19 = load i64, ptr %iov_len, align 8
  %cmp6 = icmp ult i64 %17, %19
  br i1 %cmp6, label %if.then7, label %if.else8

if.then7:                                         ; preds = %if.then5
  br label %if.end9

if.else8:                                         ; preds = %if.then5
  call void @__assert_fail(ptr noundef @.str.9, ptr noundef @.str.1, i32 noundef 399, ptr noundef @__PRETTY_FUNCTION__.qemu_iovec_slice) #9
  unreachable

if.end9:                                          ; preds = %if.then7
  %20 = load ptr, ptr %end_iov, align 8
  %iov_len10 = getelementptr inbounds %struct.iovec, ptr %20, i32 0, i32 1
  %21 = load i64, ptr %iov_len10, align 8
  %22 = load ptr, ptr %tail.addr, align 8
  %23 = load i64, ptr %22, align 8
  %sub = sub i64 %21, %23
  %24 = load ptr, ptr %tail.addr, align 8
  store i64 %sub, ptr %24, align 8
  %25 = load ptr, ptr %end_iov, align 8
  %incdec.ptr = getelementptr %struct.iovec, ptr %25, i32 1
  store ptr %incdec.ptr, ptr %end_iov, align 8
  br label %if.end11

if.end11:                                         ; preds = %if.end9, %if.end
  %26 = load ptr, ptr %end_iov, align 8
  %27 = load ptr, ptr %iov, align 8
  %sub.ptr.lhs.cast = ptrtoint ptr %26 to i64
  %sub.ptr.rhs.cast = ptrtoint ptr %27 to i64
  %sub.ptr.sub = sub i64 %sub.ptr.lhs.cast, %sub.ptr.rhs.cast
  %sub.ptr.div = sdiv exact i64 %sub.ptr.sub, 16
  %conv = trunc i64 %sub.ptr.div to i32
  %28 = load ptr, ptr %niov.addr, align 8
  store i32 %conv, ptr %28, align 4
  %29 = load ptr, ptr %iov, align 8
  ret ptr %29
}

; Function Attrs: nounwind sspstrong uwtable
define dso_local i32 @qemu_iovec_subvec_niov(ptr noundef %qiov, i64 noundef %offset, i64 noundef %len) #0 {
entry:
  %qiov.addr = alloca ptr, align 8
  %offset.addr = alloca i64, align 8
  %len.addr = alloca i64, align 8
  %head = alloca i64, align 8
  %tail = alloca i64, align 8
  %niov = alloca i32, align 4
  store ptr %qiov, ptr %qiov.addr, align 8
  store i64 %offset, ptr %offset.addr, align 8
  store i64 %len, ptr %len.addr, align 8
  %0 = load ptr, ptr %qiov.addr, align 8
  %1 = load i64, ptr %offset.addr, align 8
  %2 = load i64, ptr %len.addr, align 8
  %call = call ptr @qemu_iovec_slice(ptr noundef %0, i64 noundef %1, i64 noundef %2, ptr noundef %head, ptr noundef %tail, ptr noundef %niov)
  %3 = load i32, ptr %niov, align 4
  ret i32 %3
}