; Function Attrs: nounwind sspstrong uwtable
define dso_local i32 @qemu_iovec_subvec_niov(ptr noundef readonly captures(none) %qiov, i64 noundef %offset, i64 noundef %len) local_unnamed_addr #0 {
entry:
  %add.i = add i64 %len, %offset
  %size.i = getelementptr inbounds nuw i8, ptr %qiov, i64 32
  %0 = load i64, ptr %size.i, align 8
  %cmp.not.i = icmp ugt i64 %add.i, %0
  br i1 %cmp.not.i, label %if.else.i, label %if.end.i

if.else.i:                                        ; preds = %entry
  tail call void @__assert_fail(ptr noundef nonnull @.str.8, ptr noundef nonnull @.str.1, i32 noundef 393, ptr noundef nonnull @__PRETTY_FUNCTION__.qemu_iovec_slice) #17
  unreachable

if.end.i:                                         ; preds = %entry
  %1 = load ptr, ptr %qiov, align 8
  %cmp.not7.i.i = icmp eq i64 %offset, 0
  br i1 %cmp.not7.i.i, label %iov_skip_offset.exit.i, label %land.rhs.i.i

land.rhs.i.i:                                     ; preds = %if.end.i, %while.body.i.i
  %iov.addr.09.i.i = phi ptr [ %incdec.ptr.i.i, %while.body.i.i ], [ %1, %if.end.i ]
  %offset.addr.08.i.i = phi i64 [ %sub.i.i, %while.body.i.i ], [ %offset, %if.end.i ]
  %iov_len.i.i = getelementptr inbounds nuw i8, ptr %iov.addr.09.i.i, i64 8
  %2 = load i64, ptr %iov_len.i.i, align 8
  %cmp1.not.i.i = icmp ult i64 %offset.addr.08.i.i, %2
  br i1 %cmp1.not.i.i, label %iov_skip_offset.exit.i, label %while.body.i.i

while.body.i.i:                                   ; preds = %land.rhs.i.i
  %sub.i.i = sub nuw i64 %offset.addr.08.i.i, %2
  %incdec.ptr.i.i = getelementptr i8, ptr %iov.addr.09.i.i, i64 16
  %cmp.not.i.i = icmp eq i64 %sub.i.i, 0
  br i1 %cmp.not.i.i, label %iov_skip_offset.exit.i, label %land.rhs.i.i, !llvm.loop !18

iov_skip_offset.exit.i:                           ; preds = %while.body.i.i, %land.rhs.i.i, %if.end.i
  %offset.addr.0.lcssa.i.i = phi i64 [ 0, %if.end.i ], [ 0, %while.body.i.i ], [ %offset.addr.08.i.i, %land.rhs.i.i ]
  %iov.addr.0.lcssa.i.i = phi ptr [ %1, %if.end.i ], [ %incdec.ptr.i.i, %while.body.i.i ], [ %iov.addr.09.i.i, %land.rhs.i.i ]
  %add2.i = add i64 %offset.addr.0.lcssa.i.i, %len
  %cmp.not7.i15.i = icmp eq i64 %add2.i, 0
  br i1 %cmp.not7.i15.i, label %qemu_iovec_slice.exit, label %land.rhs.i16.i

land.rhs.i16.i:                                   ; preds = %iov_skip_offset.exit.i, %while.body.i21.i
  %iov.addr.09.i17.i = phi ptr [ %incdec.ptr.i23.i, %while.body.i21.i ], [ %iov.addr.0.lcssa.i.i, %iov_skip_offset.exit.i ]
  %offset.addr.08.i18.i = phi i64 [ %sub.i22.i, %while.body.i21.i ], [ %add2.i, %iov_skip_offset.exit.i ]
  %iov_len.i19.i = getelementptr inbounds nuw i8, ptr %iov.addr.09.i17.i, i64 8
  %3 = load i64, ptr %iov_len.i19.i, align 8
  %cmp1.not.i20.i = icmp ult i64 %offset.addr.08.i18.i, %3
  br i1 %cmp1.not.i20.i, label %if.end9.i, label %while.body.i21.i

while.body.i21.i:                                 ; preds = %land.rhs.i16.i
  %sub.i22.i = sub nuw i64 %offset.addr.08.i18.i, %3
  %incdec.ptr.i23.i = getelementptr i8, ptr %iov.addr.09.i17.i, i64 16
  %cmp.not.i24.i = icmp eq i64 %sub.i22.i, 0
  br i1 %cmp.not.i24.i, label %qemu_iovec_slice.exit, label %land.rhs.i16.i, !llvm.loop !18

if.end9.i:                                        ; preds = %land.rhs.i16.i
  %incdec.ptr.i = getelementptr i8, ptr %iov.addr.09.i17.i, i64 16
  br label %qemu_iovec_slice.exit

qemu_iovec_slice.exit:                            ; preds = %while.body.i21.i, %iov_skip_offset.exit.i, %if.end9.i
  %end_iov.0.i = phi ptr [ %incdec.ptr.i, %if.end9.i ], [ %iov.addr.0.lcssa.i.i, %iov_skip_offset.exit.i ], [ %incdec.ptr.i23.i, %while.body.i21.i ]
  %sub.ptr.lhs.cast.i = ptrtoint ptr %end_iov.0.i to i64
  %sub.ptr.rhs.cast.i = ptrtoint ptr %iov.addr.0.lcssa.i.i to i64
  %sub.ptr.sub.i = sub i64 %sub.ptr.lhs.cast.i, %sub.ptr.rhs.cast.i
  %sub.ptr.div.i = lshr exact i64 %sub.ptr.sub.i, 4
  %conv.i = trunc i64 %sub.ptr.div.i to i32
  ret i32 %conv.i
}